Certificate:
    Data:
        Version: 3 (0x2)
        Serial Number:
            2f:b0:73:97:78:e6:75:0c:04:9c:08:a2:72:32:97:49:12:be:b0:4e
        Signature Algorithm: sha256WithRSAEncryption
        Issuer: C = US, ST = California, L = Garden Grove, O = Gleske Internal, OU = Systems, CN = Local Certificate Authority
        Validity
            Not Before: Jan 15 14:21:41 2021 GMT
            Not After : Jan 10 14:21:41 2041 GMT
        Subject: C = US, ST = California, L = Garden Grove, O = Gleske Internal, OU = Systems, CN = Local Certificate Authority
        Subject Public Key Info:
            Public Key Algorithm: rsaEncryption
                RSA Public-Key: (4096 bit)
                Modulus:
                    00:d5:b9:17:97:0e:99:54:c7:2f:86:6f:aa:54:5b:
                    01:0c:2c:12:d0:a8:03:85:34:2a:be:d1:d0:40:28:
                    e8:ce:be:f1:55:d1:ad:f2:7d:a0:c8:34:9c:05:4e:
                    d8:d5:d7:0e:01:fd:80:53:ca:9c:de:3f:39:81:85:
                    49:fa:a8:95:be:9a:ab:aa:a9:23:5e:d2:8e:2b:aa:
                    d5:68:fd:d4:32:23:c4:41:f0:36:55:72:5d:07:3d:
                    40:e3:ed:4d:b4:74:cb:1d:a0:c4:12:70:58:96:08:
                    88:49:80:e2:ad:cc:11:eb:42:56:66:a0:f7:ec:74:
                    2a:17:57:fd:84:67:37:0f:56:72:de:9b:f9:a3:12:
                    14:71:47:24:1c:27:d0:02:c3:d9:a3:5a:04:43:e4:
                    b7:13:07:04:3e:3d:f0:cd:54:0d:9f:31:1b:76:2f:
                    5e:d5:71:9d:48:ad:24:91:43:38:7d:b5:6f:73:ed:
                    d8:6b:ef:94:78:b6:8c:fb:75:f9:1b:0f:1a:30:9e:
                    41:fe:df:73:c9:18:76:5e:5c:6a:0e:8e:2c:4e:63:
                    f3:35:13:b9:c7:a7:d6:51:94:43:b4:b8:a1:4a:00:
                    0b:c0:13:ab:95:c5:d6:5a:51:8b:67:22:a4:3b:44:
                    34:b3:2f:c6:1d:32:0c:23:b2:70:a8:fb:c2:b3:ec:
                    8d:83:fc:c9:97:33:57:af:f8:e3:70:44:3a:7e:4a:
                    58:e8:ae:a1:6d:d3:63:23:8e:fc:98:b0:13:62:ef:
                    db:8f:52:80:33:be:6c:c3:05:02:f6:06:96:6e:30:
                    97:3b:27:dd:df:bb:05:9a:64:77:ab:95:55:4a:b5:
                    7e:61:e5:e4:33:a4:c6:f7:c3:92:e3:c4:dc:35:8b:
                    26:cf:ab:9b:63:3b:b9:74:a8:ac:5a:f9:40:59:d3:
                    52:90:ef:3d:2b:4d:db:2a:3b:88:21:a9:b5:e6:aa:
                    93:74:72:e8:cd:13:bb:3e:24:16:a3:d4:a6:d4:eb:
                    06:ca:75:38:75:75:1e:74:9b:72:63:43:fd:f0:0c:
                    ab:e5:b5:08:d6:d1:79:57:e4:7b:20:a0:2f:40:92:
                    4a:1a:a4:fa:a8:fe:01:81:d4:89:bf:e0:da:49:43:
                    5d:3f:f3:61:db:f4:92:ce:a0:8c:da:e0:8c:80:62:
                    b3:2c:01:08:86:97:3d:5d:94:fb:62:33:fe:95:ca:
                    cb:6e:eb:94:98:e8:39:36:e8:4f:f3:bb:49:61:c0:
                    fa:83:5d:f7:09:41:8f:26:56:4c:d9:c3:d6:90:1d:
                    c5:68:62:c2:75:f1:fe:d1:46:d7:40:d1:a8:56:b8:
                    ab:0a:bf:65:2d:41:11:af:72:12:e4:23:05:28:57:
                    09:f0:27
                Exponent: 65537 (0x10001)
        X509v3 extensions:
            X509v3 Subject Key Identifier: 
                4B:7E:91:44:76:BF:71:4B:DA:32:2A:D4:85:50:5F:26:01:BE:74:3D
            X509v3 Authority Key Identifier: 
                keyid:4B:7E:91:44:76:BF:71:4B:DA:32:2A:D4:85:50:5F:26:01:BE:74:3D

            X509v3 Basic Constraints: 
                CA:TRUE
    Signature Algorithm: sha256WithRSAEncryption
         2a:1f:9f:35:f4:a6:05:a1:33:33:f6:b0:4f:f7:39:ec:a0:87:
         10:ab:64:2e:74:9d:05:96:45:01:75:5b:d4:2f:94:c4:d2:e4:
         a3:f8:10:33:25:72:3f:51:5a:b9:2a:21:19:c9:85:c6:18:b7:
         76:ef:ab:06:3c:c4:03:8c:c1:61:5e:fe:64:48:65:86:70:0e:
         8b:15:64:0f:83:01:d0:cf:7c:09:61:82:73:1e:d4:10:51:fe:
         ea:6e:be:a4:6a:7a:37:21:63:cf:94:13:50:e2:3f:9e:d5:8c:
         2b:91:9b:e0:a0:dc:3f:ff:40:9c:f4:fb:43:bb:fb:2f:51:da:
         18:95:84:91:76:06:1a:1a:32:43:dd:d2:06:9f:32:3d:73:b3:
         99:b2:21:f9:7d:eb:dc:1f:fe:f2:43:04:7b:44:87:2f:66:c3:
         50:db:14:ac:3c:03:b9:db:72:35:88:8d:cf:50:da:ad:a6:76:
         3c:68:36:5f:18:41:c3:39:9c:0d:3f:aa:48:f9:68:7a:4e:16:
         6e:7a:19:4d:94:84:ff:7a:7e:8e:76:03:16:bc:56:79:76:77:
         e6:2e:fa:34:d5:ce:a7:7c:09:d9:fa:6d:cf:ce:c7:30:c6:af:
         70:ae:3f:1e:bf:9b:63:43:10:57:65:26:2d:4b:20:5b:a7:eb:
         20:05:82:ae:77:da:40:7b:5b:32:40:13:c4:fb:e5:40:15:ba:
         f0:30:e0:80:e3:e7:ce:c8:9c:0c:e0:00:45:b5:92:87:a1:28:
         25:ab:d5:87:61:5c:c3:3e:2e:c3:67:c1:e7:a7:38:fa:26:f0:
         3c:ea:f4:ee:7a:86:47:59:2b:0d:36:89:5d:52:25:f1:c2:a0:
         0f:39:cd:85:48:e6:33:f3:1e:74:1d:6c:28:ab:5a:94:b7:67:
         9d:cc:50:5e:c9:8b:5a:75:c4:8d:b6:f0:cc:7d:3c:01:b0:a6:
         f9:a7:75:10:d9:2f:d3:37:6c:f0:08:bd:6e:45:fc:70:6e:80:
         67:fb:3c:50:95:07:6b:af:b7:15:8d:31:49:e2:e1:c9:c3:17:
         b0:5c:ea:13:48:9e:ee:0f:19:7c:cd:91:a5:34:81:6b:fc:ab:
         1b:4c:09:9e:7b:e1:8e:66:a7:09:e0:fe:e3:d0:ee:f5:b1:6c:
         de:02:31:7b:b5:2e:2d:5e:23:0d:08:c7:50:2e:34:cc:9c:c6:
         29:31:15:c5:77:87:aa:7a:85:43:50:47:0e:32:37:6b:c3:42:
         c3:a2:12:b8:36:62:e0:6d:3e:c9:98:53:42:6a:3e:7b:e2:69:
         6d:ca:34:00:de:bc:3f:db:b6:14:ed:f7:80:61:cd:bb:00:f9:
         83:aa:3f:74:4c:fa:58:e2
-----BEGIN CERTIFICATE-----
MIIF9jCCA96gAwIBAgIUL7Bzl3jmdQwEnAiicjKXSRK+sE4wDQYJKoZIhvcNAQEL
BQAwgYsxCzAJBgNVBAYTAlVTMRMwEQYDVQQIDApDYWxpZm9ybmlhMRUwEwYDVQQH
DAxHYXJkZW4gR3JvdmUxGDAWBgNVBAoMD0dsZXNrZSBJbnRlcm5hbDEQMA4GA1UE
CwwHU3lzdGVtczEkMCIGA1UEAwwbTG9jYWwgQ2VydGlmaWNhdGUgQXV0aG9yaXR5
MB4XDTIxMDExNTE0MjE0MVoXDTQxMDExMDE0MjE0MVowgYsxCzAJBgNVBAYTAlVT
MRMwEQYDVQQIDApDYWxpZm9ybmlhMRUwEwYDVQQHDAxHYXJkZW4gR3JvdmUxGDAW
BgNVBAoMD0dsZXNrZSBJbnRlcm5hbDEQMA4GA1UECwwHU3lzdGVtczEkMCIGA1UE
AwwbTG9jYWwgQ2VydGlmaWNhdGUgQXV0aG9yaXR5MIICIjANBgkqhkiG9w0BAQEF
AAOCAg8AMIICCgKCAgEA1bkXlw6ZVMcvhm+qVFsBDCwS0KgDhTQqvtHQQCjozr7x
VdGt8n2gyDScBU7Y1dcOAf2AU8qc3j85gYVJ+qiVvpqrqqkjXtKOK6rVaP3UMiPE
QfA2VXJdBz1A4+1NtHTLHaDEEnBYlgiISYDircwR60JWZqD37HQqF1f9hGc3D1Zy
3pv5oxIUcUckHCfQAsPZo1oEQ+S3EwcEPj3wzVQNnzEbdi9e1XGdSK0kkUM4fbVv
c+3Ya++UeLaM+3X5Gw8aMJ5B/t9zyRh2XlxqDo4sTmPzNRO5x6fWUZRDtLihSgAL
wBOrlcXWWlGLZyKkO0Q0sy/GHTIMI7JwqPvCs+yNg/zJlzNXr/jjcEQ6fkpY6K6h
bdNjI478mLATYu/bj1KAM75swwUC9gaWbjCXOyfd37sFmmR3q5VVSrV+YeXkM6TG
98OS48TcNYsmz6ubYzu5dKisWvlAWdNSkO89K03bKjuIIam15qqTdHLozRO7PiQW
o9Sm1OsGynU4dXUedJtyY0P98Ayr5bUI1tF5V+R7IKAvQJJKGqT6qP4BgdSJv+Da
SUNdP/Nh2/SSzqCM2uCMgGKzLAEIhpc9XZT7YjP+lcrLbuuUmOg5NuhP87tJYcD6
g133CUGPJlZM2cPWkB3FaGLCdfH+0UbXQNGoVrirCr9lLUERr3IS5CMFKFcJ8CcC
AwEAAaNQME4wHQYDVR0OBBYEFEt+kUR2v3FL2jIq1IVQXyYBvnQ9MB8GA1UdIwQY
MBaAFEt+kUR2v3FL2jIq1IVQXyYBvnQ9MAwGA1UdEwQFMAMBAf8wDQYJKoZIhvcN
AQELBQADggIBACofnzX0pgWhMzP2sE/3OeyghxCrZC50nQWWRQF1W9QvlMTS5KP4
EDMlcj9RWrkqIRnJhcYYt3bvqwY8xAOMwWFe/mRIZYZwDosVZA+DAdDPfAlhgnMe
1BBR/upuvqRqejchY8+UE1DiP57VjCuRm+Cg3D//QJz0+0O7+y9R2hiVhJF2Bhoa
MkPd0gafMj1zs5myIfl969wf/vJDBHtEhy9mw1DbFKw8A7nbcjWIjc9Q2q2mdjxo
Nl8YQcM5nA0/qkj5aHpOFm56GU2UhP96fo52Axa8Vnl2d+Yu+jTVzqd8Cdn6bc/O
xzDGr3CuPx6/m2NDEFdlJi1LIFun6yAFgq532kB7WzJAE8T75UAVuvAw4IDj587I
nAzgAEW1koehKCWr1YdhXMM+LsNnweenOPom8Dzq9O56hkdZKw02iV1SJfHCoA85
zYVI5jPzHnQdbCirWpS3Z53MUF7Ji1p1xI228Mx9PAGwpvmndRDZL9M3bPAIvW5F
/HBugGf7PFCVB2uvtxWNMUni4cnDF7Bc6hNInu4PGXzNkaU0gWv8qxtMCZ574Y5m
pwng/uPQ7vWxbN4CMXu1Li1eIw0Ix1AuNMycxikxFcV3h6p6hUNQRw4yN2vDQsOi
Erg2YuBtPsmYU0JqPnviaW3KNADevD/bthTt94BhzbsA+YOqP3RM+lji
-----END CERTIFICATE-----
